-----BEGIN CERTIFICATE-----
MIIEMDCCAxigAwIBAgIRAIsrbn1q4BXIxsWGfX0At2kwDQYJKoZIhvcNAQELBQAw
gaExCzAJBgNVBAYTAkNOMRAwDgYDVQQHEwdCZWlqaW5nMRAwDgYDVQQJEwdCZWlq
aW5nMRUwEwYDVQQKEwxDaGFpdGluIFRlY2gxKjAoBgNVBAsTIVNlcnZpY2UgSW5m
cmFzdHJ1Y3R1cmUgRGVwYXJ0bWVudDErMCkGA1UEAxMiSW5zZWN1cmUgUm9vdCBD
QSBGb3IgWC1SYXkgU2Nhbm5lcjAeFw0yNDA0MTEwODIyMzVaFw0zNDA0MDkwODIy
MzVaMIGhMQswCQYDVQQGEwJDTjEQMA4GA1UEBxMHQmVpamluZzEQMA4GA1UECRMH
QmVpamluZzEVMBMGA1UEChMMQ2hhaXRpbiBUZWNoMSowKAYDVQQLEyFTZXJ2aWNl
IEluZnJhc3RydWN0dXJlIERlcGFydG1lbnQxKzApBgNVBAMTIkluc2VjdXJlIFJv
b3QgQ0EgRm9yIFgtUmF5IFNjYW5uZXIwggEiMA0GCSqGSIb3DQEBAQUAA4IBDwAw
ggEKAoIBAQDQFUg5JTN/6lZwgRDdW9Ra7ieUINxIgnUSaJdLOwzXUsGcI1jqZKX2
59P3zrwyUsXtiH2XxuhTKlLJSTqP09T8Iy5NJQrViBcmJrncMuCGl8gXP+aXQlp8
XAFrcQ8QS1Jz7laYJknKbtP2pnfnnspuIotne7Oklbi5OeIutERfqgm1bLw9Ewbi
f3/hn+u73YHUPNccCNgyNDQoh9WLqWlr1i93vMmhCPKKYLYOGSp8TdoB2WErJNEc
enhHjkXoT9WqnILMuv8bPaPp7oLazFXdgn2uVi99ElEOgqhHOBdkDjxOC+mdqs0C
biQUOCv5A7EwwsQPGaeuw/A6bgDodIG3AgMBAAGjYTBfMA4GA1UdDwEB/wQEAwIC
hDAdBgNVHSUEFjAUBggrBgEFBQcDAQYIKwYBBQUHAwIwDwYDVR0TAQH/BAUwAwEB
/zAdBgNVHQ4EFgQU7FfEhfUbnMGFZF+JiE5ozsX33RUwDQYJKoZIhvcNAQELBQAD
ggEBAL81Yt87oDwDqUTFoygsGkeDTtAMDHGtxFTxLGRYVMbnapW7smsnzrzuNuEc
wnZ4HDAQNqrQQVU76U6k0YZx9dRwT+upRnqr64eKlgbHLbA+1ZrU0mpc0cYwhukC
53YvCAAuJuSgNnNfb11NiJgXTsT3zD7L8/41uM2JDhh0V+Y7EpOPNh84kEdJmB+n
8X4lRcTtw3h9z5k+aEOi66ct9UCxNSRYEHG6FER218QEMYuZtBf1EpOhxe282etS
QMTu1D2sCG23Jy/vAWLdT1rwfFwrPy2YRWRjXyp7tK0F8i8jW+gS8TfbxkmBHoI7
MNge4J08WMcrO0EcorjPuqNdoLM=
-----END CERTIFICATE-----
Certificate:
    Data:
        Version: 3 (0x2)
        Serial Number:
            8b:2b:6e:7d:6a:e0:15:c8:c6:c5:86:7d:7d:00:b7:69
        Signature Algorithm: sha256WithRSAEncryption
        Issuer: C = CN, L = Beijing, street = Beijing, O = Chaitin Tech, OU = Service Infrastructure Department, CN = Insecure Root CA For X-Ray Scanner
        Validity
            Not Before: Apr 11 08:22:35 2024 GMT
            Not After : Apr  9 08:22:35 2034 GMT
        Subject: C = CN, L = Beijing, street = Beijing, O = Chaitin Tech, OU = Service Infrastructure Department, CN = Insecure Root CA For X-Ray Scanner
        Subject Public Key Info:
            Public Key Algorithm: rsaEncryption
                Public-Key: (2048 bit)
                Modulus:
                    00:d0:15:48:39:25:33:7f:ea:56:70:81:10:dd:5b:
                    d4:5a:ee:27:94:20:dc:48:82:75:12:68:97:4b:3b:
                    0c:d7:52:c1:9c:23:58:ea:64:a5:f6:e7:d3:f7:ce:
                    bc:32:52:c5:ed:88:7d:97:c6:e8:53:2a:52:c9:49:
                    3a:8f:d3:d4:fc:23:2e:4d:25:0a:d5:88:17:26:26:
                    b9:dc:32:e0:86:97:c8:17:3f:e6:97:42:5a:7c:5c:
                    01:6b:71:0f:10:4b:52:73:ee:56:98:26:49:ca:6e:
                    d3:f6:a6:77:e7:9e:ca:6e:22:8b:67:7b:b3:a4:95:
                    b8:b9:39:e2:2e:b4:44:5f:aa:09:b5:6c:bc:3d:13:
                    06:e2:7f:7f:e1:9f:eb:bb:dd:81:d4:3c:d7:1c:08:
                    d8:32:34:34:28:87:d5:8b:a9:69:6b:d6:2f:77:bc:
                    c9:a1:08:f2:8a:60:b6:0e:19:2a:7c:4d:da:01:d9:
                    61:2b:24:d1:1c:7a:78:47:8e:45:e8:4f:d5:aa:9c:
                    82:cc:ba:ff:1b:3d:a3:e9:ee:82:da:cc:55:dd:82:
                    7d:ae:56:2f:7d:12:51:0e:82:a8:47:38:17:64:0e:
                    3c:4e:0b:e9:9d:aa:cd:02:6e:24:14:38:2b:f9:03:
                    b1:30:c2:c4:0f:19:a7:ae:c3:f0:3a:6e:00:e8:74:
                    81:b7
                Exponent: 65537 (0x10001)
        X509v3 extensions:
            X509v3 Key Usage: critical
                Digital Signature, Certificate Sign
            X509v3 Extended Key Usage: 
                TLS Web Server Authentication, TLS Web Client Authentication
            X509v3 Basic Constraints: critical
                CA:TRUE
            X509v3 Subject Key Identifier: 
                EC:57:C4:85:F5:1B:9C:C1:85:64:5F:89:88:4E:68:CE:C5:F7:DD:15
    Signature Algorithm: sha256WithRSAEncryption
    Signature Value:
        bf:35:62:df:3b:a0:3c:03:a9:44:c5:a3:28:2c:1a:47:83:4e:
        d0:0c:0c:71:ad:c4:54:f1:2c:64:58:54:c6:e7:6a:95:bb:b2:
        6b:27:ce:bc:ee:36:e1:1c:c2:76:78:1c:30:10:36:aa:d0:41:
        55:3b:e9:4e:a4:d1:86:71:f5:d4:70:4f:eb:a9:46:7a:ab:eb:
        87:8a:96:06:c7:2d:b0:3e:d5:9a:d4:d2:6a:5c:d1:c6:30:86:
        e9:02:e7:76:2f:08:00:2e:26:e4:a0:36:73:5f:6f:5d:4d:88:
        98:17:4e:c4:f7:cc:3e:cb:f3:fe:35:b8:cd:89:0e:18:74:57:
        e6:3b:12:93:8f:36:1f:38:90:47:49:98:1f:a7:f1:7e:25:45:
        c4:ed:c3:78:7d:cf:99:3e:68:43:a2:eb:a7:2d:f5:40:b1:35:
        24:58:10:71:ba:14:44:76:d7:c4:04:31:8b:99:b4:17:f5:12:
        93:a1:c5:ed:bc:d9:eb:52:40:c4:ee:d4:3d:ac:08:6d:b7:27:
        2f:ef:01:62:dd:4f:5a:f0:7c:5c:2b:3f:2d:98:45:64:63:5f:
        2a:7b:b4:ad:05:f2:2f:23:5b:e8:12:f1:37:db:c6:49:81:1e:
        82:3b:30:d8:1e:e0:9d:3c:58:c7:2b:3b:41:1c:a2:b8:cf:ba:
        a3:5d:a0:b3
